libiso9660++.so.0 libiso9660++0 #MINVER#
* Build-Depends-Package: libiso9660++-dev
 _ZN7ISO96602FS15read_superblockEh@Base 2.1.0
 _ZN7ISO96602FS7readdirEPKcRSt6vectorIPNS_4StatESaIS5_EE@Base 2.1.0
 _ZN7ISO96602FS8find_lsnEi@Base 2.1.0
 _ZN7ISO96602FS8read_pvdEv@Base 2.1.0
 _ZN7ISO96603IFS10open_fuzzyEPKcht@Base 2.1.0
 _ZN7ISO96603IFS15read_superblockEht@Base 2.1.0
 _ZN7ISO96603IFS16get_joliet_levelEv@Base 2.1.0
 _ZN7ISO96603IFS21read_superblock_fuzzyEht@Base 2.1.0
 _ZN7ISO96603IFS5closeEv@Base 2.1.0
 _ZN7ISO96603IFS5is_xaEv@Base 2.1.0
 _ZN7ISO96603IFS8find_lsnEi@Base 2.1.0
 _ZN7ISO96603IFS8read_pvdEv@Base 2.1.0
 _ZN7ISO96603PVD10get_pvd_idEv@Base 2.1.0
 _ZN7ISO96603PVD12get_pvd_typeEv@Base 2.1.0
 _ZN7ISO96603PVD12get_root_lsnEv@Base 2.1.0
 _ZN7ISO96603PVD13get_system_idEv@Base 2.1.0
 _ZN7ISO96603PVD13get_volume_idEv@Base 2.1.0
 _ZN7ISO96603PVD15get_preparer_idEv@Base 2.1.0
 _ZN7ISO96603PVD15get_pvd_versionEv@Base 2.1.0
 _ZN7ISO96603PVD16get_publisher_idEv@Base 2.1.0
 _ZN7ISO96603PVD16get_volumeset_idEv@Base 2.1.0
 _ZN7ISO96603PVD18get_application_idEv@Base 2.1.0
 _ZN7ISO96603PVD18get_pvd_block_sizeEv@Base 2.1.0
 _ZN7ISO96603PVD18get_pvd_space_sizeEv@Base 2.1.0
 (optional=templinst|arch=amd64)_ZNSt6vectorIPN7ISO96604StatESaIS2_EE17_M_realloc_insertIJS2_EEEvN9__gnu_cxx17__normal_iteratorIPS2_S4_EEDpOT_@Base 2.1.0
